; Function Attrs: mustprogress nounwind uwtable
define hidden void @_ZN19G1FullGCCompactTask22G1CompactRegionClosure15clear_in_bitmapEP7oopDesc(ptr nocapture noundef nonnull readonly align 8 dereferenceable(8) %0, ptr noundef %1) local_unnamed_addr #0 align 2 {
  %3 = load ptr, ptr %0, align 8
  %4 = load ptr, ptr %3, align 8
  %5 = load ptr, ptr %4, align 8
  tail call void %5(ptr noundef nonnull align 8 dereferenceable(48) %3, ptr noundef %1) #9
  %6 = getelementptr inbounds i8, ptr %3, i64 32
  %7 = getelementptr inbounds i8, ptr %3, i64 8
  %8 = load ptr, ptr %7, align 8
  %9 = ptrtoint ptr %1 to i64
  %10 = ptrtoint ptr %8 to i64
  %11 = sub i64 %9, %10
  %12 = lshr i64 %11, 3
  %13 = getelementptr inbounds i8, ptr %3, i64 24
  %14 = load i32, ptr %13, align 8
  %15 = zext nneg i32 %14 to i64
  %16 = lshr i64 %12, %15
  %17 = and i64 %16, 63
  %18 = shl nuw i64 1, %17
  %19 = xor i64 %18, -1
  %20 = load ptr, ptr %6, align 8
  %21 = lshr i64 %16, 6
  %22 = getelementptr inbounds i64, ptr %20, i64 %21
  %23 = load i64, ptr %22, align 8
  %24 = and i64 %23, %19
  store i64 %24, ptr %22, align 8
  ret void
}